; Function Attrs: nounwind uwtable
define internal fastcc { ptr, ptr } @gen_format(ptr %0, ptr %1, i64 %2, ptr %3) unnamed_addr #0 {
  %5 = tail call { ptr, ptr } @gen_const(i64 %2, ptr %3) #10
  %6 = extractvalue { ptr, ptr } %5, 0
  %7 = extractvalue { ptr, ptr } %5, 1
  %8 = tail call { ptr, ptr } @gen_lambda(ptr %6, ptr %7) #10
  %9 = extractvalue { ptr, ptr } %8, 0
  %10 = extractvalue { ptr, ptr } %8, 1
  %11 = tail call { ptr, ptr } @gen_call(ptr noundef nonnull @.str.61, ptr %9, ptr %10) #10
  %12 = extractvalue { ptr, ptr } %11, 0
  %13 = extractvalue { ptr, ptr } %11, 1
  %14 = tail call { ptr, ptr } @block_join(ptr %0, ptr %1, ptr %12, ptr %13) #10
  ret { ptr, ptr } %14
}